; Function Attrs: mustprogress nofree norecurse nosync nounwind willreturn memory(argmem: readwrite) uwtable
define void @_ZN7rocksdb16TestRandomRWFileC2ERKNSt7__cxx1112basic_stringIcSt11char_traitsIcESaIcEEEOSt10unique_ptrINS_12RandomRWFileESt14default_deleteISA_EEPNS_21FaultInjectionTestEnvE(ptr noundef nonnull writeonly align 8 captures(none) dereferenceable(32) initializes((0, 17), (24, 32)) %0, ptr nonnull readnone align 8 captures(none) %1, ptr noundef nonnull align 8 captures(none) dereferenceable(8) %2, ptr noundef %3) unnamed_addr #6 align 2 {
  store ptr getelementptr inbounds nuw inrange(-16, 80) (i8, ptr @_ZTVN7rocksdb16TestRandomRWFileE, i64 16), ptr %0, align 8, !tbaa !22
  %5 = getelementptr inbounds nuw i8, ptr %0, i64 8
  %6 = load i64, ptr %2, align 8, !tbaa !203
  store i64 %6, ptr %5, align 8, !tbaa !203
  store ptr null, ptr %2, align 8, !tbaa !203
  %7 = getelementptr inbounds nuw i8, ptr %0, i64 16
  store i8 1, ptr %7, align 8, !tbaa !205
  %8 = getelementptr inbounds nuw i8, ptr %0, i64 24
  store ptr %3, ptr %8, align 8, !tbaa !214
  ret void
}